; ModuleID = 'source-C-CXX/29/565.c'
source_filename = "source-C-CXX/29/565.c"
target datalayout = "e-m:e-p270:32:32-p271:32:32-p272:64:64-i64:64-f80:128-n8:16:32:64-S128"
target triple = "x86_64-pc-linux-gnu"

@.str = private unnamed_addr constant [3 x i8] c"%d\00", align 1
@switch.table.main = private unnamed_addr constant [9 x i32] [i32 71, i32 72, i32 73, i32 74, i32 75, i32 76, i32 79, i32 78, i32 79], align 4

; Function Attrs: nofree nounwind sspstrong uwtable
define dso_local i32 @main() local_unnamed_addr #0 {
  %1 = alloca i32, align 4
  %2 = bitcast i32* %1 to i8*
  call void @llvm.lifetime.start.p0i8(i64 4, i8* nonnull %2) #3
  %3 = call i32 (i8*, ...) @__isoc99_scanf(i8* getelementptr inbounds ([3 x i8], [3 x i8]* @.str, i64 0, i64 0), i32* nonnull %1)
  %4 = load i32, i32* %1, align 4, !tbaa !5
  %5 = icmp slt i32 %4, 1
  br i1 %5, label %34, label %6

6:                                                ; preds = %0, %27
  %7 = phi i32 [ %32, %27 ], [ 0, %0 ]
  %8 = phi i32 [ %30, %27 ], [ 1, %0 ]
  %9 = urem i32 %8, 7
  %10 = icmp eq i32 %9, 0
  br i1 %10, label %27, label %11

11:                                               ; preds = %6
  %12 = freeze i32 %8
  %13 = urem i32 %12, 10
  %14 = icmp eq i32 %13, 7
  br i1 %14, label %27, label %15

15:                                               ; preds = %11
  %16 = add i32 %12, -71
  %17 = icmp ult i32 %16, 9
  br i1 %17, label %18, label %27

18:                                               ; preds = %15
  %19 = trunc i32 %16 to i16
  %20 = lshr i16 447, %19
  %21 = and i16 %20, 1
  %22 = icmp eq i16 %21, 0
  br i1 %22, label %27, label %23

23:                                               ; preds = %18
  %24 = sext i32 %16 to i64
  %25 = getelementptr inbounds [9 x i32], [9 x i32]* @switch.table.main, i64 0, i64 %24
  %26 = load i32, i32* %25, align 4
  br label %27

27:                                               ; preds = %15, %18, %23, %6, %11
  %28 = phi i32 [ %12, %11 ], [ %8, %6 ], [ %26, %23 ], [ %12, %18 ], [ %12, %15 ]
  %29 = phi i32 [ 0, %11 ], [ 0, %6 ], [ 0, %23 ], [ %12, %18 ], [ %12, %15 ]
  %30 = add nuw nsw i32 %28, 1
  %31 = mul nsw i32 %29, %29
  %32 = add nuw nsw i32 %31, %7
  %33 = icmp slt i32 %28, %4
  br i1 %33, label %6, label %34, !llvm.loop !9

34:                                               ; preds = %27, %0
  %35 = phi i32 [ 0, %0 ], [ %32, %27 ]
  %36 = call i32 (i8*, ...) @printf(i8* nonnull dereferenceable(1) getelementptr inbounds ([3 x i8], [3 x i8]* @.str, i64 0, i64 0), i32 %35)
  call void @llvm.lifetime.end.p0i8(i64 4, i8* nonnull %2) #3
  ret i32 0
}

; Function Attrs: argmemonly mustprogress nofree nosync nounwind willreturn
declare void @llvm.lifetime.start.p0i8(i64 immarg, i8* nocapture) #1

; Function Attrs: nofree nounwind
declare noundef i32 @__isoc99_scanf(i8* nocapture noundef readonly, ...) local_unnamed_addr #2

; Function Attrs: nofree nounwind
declare noundef i32 @printf(i8* nocapture noundef readonly, ...) local_unnamed_addr #2

; Function Attrs: argmemonly mustprogress nofree nosync nounwind willreturn
declare void @llvm.lifetime.end.p0i8(i64 immarg, i8* nocapture) #1


!llvm.module.flags = !{!0, !1, !2, !3}
!llvm.ident = !{!4}

!0 = !{i32 1, !"wchar_size", i32 4}
!1 = !{i32 7, !"PIC Level", i32 2}
!2 = !{i32 7, !"PIE Level", i32 2}
!3 = !{i32 7, !"uwtable", i32 1}
!4 = !{!"clang version 13.0.0"}
!5 = !{!6, !6, i64 0}
!6 = !{!"int", !7, i64 0}
!7 = !{!"omnipotent char", !8, i64 0}
!8 = !{!"Simple C/C++ TBAA"}
!9 = distinct !{!9, !10}
!10 = !{!"llvm.loop.mustprogress"}
